
embed.out:     file format elf32-littlearm


Disassembly of section .text:

00000000 <deregister_tm_clones>:
       0:	e59f0018 	ldr	r0, [pc, #24]	; 20 <deregister_tm_clones+0x20>
       4:	e59f3018 	ldr	r3, [pc, #24]	; 24 <deregister_tm_clones+0x24>
       8:	e1530000 	cmp	r3, r0
       c:	012fff1e 	bxeq	lr
      10:	e59f3010 	ldr	r3, [pc, #16]	; 28 <deregister_tm_clones+0x28>
      14:	e3530000 	cmp	r3, #0
      18:	012fff1e 	bxeq	lr
      1c:	e12fff13 	bx	r3
      20:	20000870 	andcs	r0, r0, r0, ror r8
      24:	20000870 	andcs	r0, r0, r0, ror r8
      28:	00000000 	andeq	r0, r0, r0

0000002c <register_tm_clones>:
      2c:	e59f0024 	ldr	r0, [pc, #36]	; 58 <register_tm_clones+0x2c>
      30:	e59f1024 	ldr	r1, [pc, #36]	; 5c <register_tm_clones+0x30>
      34:	e0413000 	sub	r3, r1, r0
      38:	e1a01fa3 	lsr	r1, r3, #31
      3c:	e0811143 	add	r1, r1, r3, asr #2
      40:	e1b010c1 	asrs	r1, r1, #1
      44:	012fff1e 	bxeq	lr
      48:	e59f3010 	ldr	r3, [pc, #16]	; 60 <register_tm_clones+0x34>
      4c:	e3530000 	cmp	r3, #0
      50:	012fff1e 	bxeq	lr
      54:	e12fff13 	bx	r3
      58:	20000870 	andcs	r0, r0, r0, ror r8
      5c:	20000870 	andcs	r0, r0, r0, ror r8
      60:	00000000 	andeq	r0, r0, r0

00000064 <__do_global_dtors_aux>:
      64:	e92d4010 	push	{r4, lr}
      68:	e59f402c 	ldr	r4, [pc, #44]	; 9c <__do_global_dtors_aux+0x38>
      6c:	e5d43000 	ldrb	r3, [r4]
      70:	e3530000 	cmp	r3, #0
      74:	1a000006 	bne	94 <__do_global_dtors_aux+0x30>
      78:	ebffffe0 	bl	0 <deregister_tm_clones>
      7c:	e59f301c 	ldr	r3, [pc, #28]	; a0 <__do_global_dtors_aux+0x3c>
      80:	e3530000 	cmp	r3, #0
      84:	159f0018 	ldrne	r0, [pc, #24]	; a4 <__do_global_dtors_aux+0x40>
      88:	11a00000 	movne	r0, r0
      8c:	e3a03001 	mov	r3, #1
      90:	e5c43000 	strb	r3, [r4]
      94:	e8bd4010 	pop	{r4, lr}
      98:	e12fff1e 	bx	lr
      9c:	20000870 	andcs	r0, r0, r0, ror r8
      a0:	00000000 	andeq	r0, r0, r0
      a4:	00001624 	andeq	r1, r0, r4, lsr #12

000000a8 <frame_dummy>:
      a8:	e59f3020 	ldr	r3, [pc, #32]	; d0 <frame_dummy+0x28>
      ac:	e3530000 	cmp	r3, #0
      b0:	0a000005 	beq	cc <frame_dummy+0x24>
      b4:	e92d4010 	push	{r4, lr}
      b8:	e59f1014 	ldr	r1, [pc, #20]	; d4 <frame_dummy+0x2c>
      bc:	e59f0014 	ldr	r0, [pc, #20]	; d8 <frame_dummy+0x30>
      c0:	e1a00000 	nop			; (mov r0, r0)
      c4:	e8bd4010 	pop	{r4, lr}
      c8:	eaffffd7 	b	2c <register_tm_clones>
      cc:	eaffffd6 	b	2c <register_tm_clones>
      d0:	00000000 	andeq	r0, r0, r0
      d4:	20000874 	andcs	r0, r0, r4, ror r8
      d8:	00001624 	andeq	r1, r0, r4, lsr #12

000000dc <_stack_init>:
      dc:	e10f4000 	mrs	r4, CPSR
      e0:	e314000f 	tst	r4, #15
      e4:	0a00001c 	beq	15c <_stack_init+0x80>
      e8:	e1a0300d 	mov	r3, sp
      ec:	e3a010d1 	mov	r1, #209	; 0xd1
      f0:	e121f001 	msr	CPSR_c, r1
      f4:	e1a0d003 	mov	sp, r3
      f8:	e24daa01 	sub	sl, sp, #4096	; 0x1000
      fc:	e1a0300a 	mov	r3, sl
     100:	e3a010d7 	mov	r1, #215	; 0xd7
     104:	e121f001 	msr	CPSR_c, r1
     108:	e1a0d003 	mov	sp, r3
     10c:	e2433a01 	sub	r3, r3, #4096	; 0x1000
     110:	e3a010db 	mov	r1, #219	; 0xdb
     114:	e121f001 	msr	CPSR_c, r1
     118:	e1a0d003 	mov	sp, r3
     11c:	e2433a01 	sub	r3, r3, #4096	; 0x1000
     120:	e3a010d2 	mov	r1, #210	; 0xd2
     124:	e121f001 	msr	CPSR_c, r1
     128:	e1a0d003 	mov	sp, r3
     12c:	e2433a02 	sub	r3, r3, #8192	; 0x2000
     130:	e3a010d3 	mov	r1, #211	; 0xd3
     134:	e121f001 	msr	CPSR_c, r1
     138:	e1a0d003 	mov	sp, r3
     13c:	e2433902 	sub	r3, r3, #32768	; 0x8000
     140:	e3c330ff 	bic	r3, r3, #255	; 0xff
     144:	e3c33cff 	bic	r3, r3, #65280	; 0xff00
     148:	e3a010df 	mov	r1, #223	; 0xdf
     14c:	e121f001 	msr	CPSR_c, r1
     150:	e1a0d003 	mov	sp, r3
     154:	e38440c0 	orr	r4, r4, #192	; 0xc0
     158:	e121f004 	msr	CPSR_c, r4
     15c:	e243a801 	sub	sl, r3, #65536	; 0x10000
     160:	e12fff1e 	bx	lr

00000164 <_mainCRTStartup>:
     164:	e59f3088 	ldr	r3, [pc, #136]	; 1f4 <_mainCRTStartup+0x90>
     168:	e3530000 	cmp	r3, #0
     16c:	059f3074 	ldreq	r3, [pc, #116]	; 1e8 <_mainCRTStartup+0x84>
     170:	e1a0d003 	mov	sp, r3
     174:	ebffffd8 	bl	dc <_stack_init>
     178:	e3b01000 	movs	r1, #0
     17c:	e1a0b001 	mov	fp, r1
     180:	e1a07001 	mov	r7, r1
     184:	e59f006c 	ldr	r0, [pc, #108]	; 1f8 <_mainCRTStartup+0x94>
     188:	e59f206c 	ldr	r2, [pc, #108]	; 1fc <_mainCRTStartup+0x98>
     18c:	e0522000 	subs	r2, r2, r0
     190:	eb0002ca 	bl	cc0 <memset>
     194:	e59f3050 	ldr	r3, [pc, #80]	; 1ec <_mainCRTStartup+0x88>
     198:	e3530000 	cmp	r3, #0
     19c:	0a000001 	beq	1a8 <_mainCRTStartup+0x44>
     1a0:	e1a0e00f 	mov	lr, pc
     1a4:	e1a0f003 	mov	pc, r3
     1a8:	e59f3040 	ldr	r3, [pc, #64]	; 1f0 <_mainCRTStartup+0x8c>
     1ac:	e3530000 	cmp	r3, #0
     1b0:	0a000001 	beq	1bc <_mainCRTStartup+0x58>
     1b4:	e1a0e00f 	mov	lr, pc
     1b8:	e1a0f003 	mov	pc, r3
     1bc:	e3b00000 	movs	r0, #0
     1c0:	e3b01000 	movs	r1, #0
     1c4:	e1b04000 	movs	r4, r0
     1c8:	e1b05001 	movs	r5, r1
     1cc:	e59f002c 	ldr	r0, [pc, #44]	; 200 <_mainCRTStartup+0x9c>
     1d0:	eb000066 	bl	370 <atexit>
     1d4:	eb00008b 	bl	408 <__libc_init_array>
     1d8:	e1b00004 	movs	r0, r4
     1dc:	e1b01005 	movs	r1, r5
     1e0:	eb000007 	bl	204 <main>
     1e4:	eb000069 	bl	390 <exit>
     1e8:	00080000 	andeq	r0, r8, r0
	...
     1f4:	200008d8 	ldrdcs	r0, [r0], -r8
     1f8:	20000870 	andcs	r0, r0, r0, ror r8
     1fc:	200008d4 	ldrdcs	r0, [r0], -r4
     200:	000003c4 	andeq	r0, r0, r4, asr #7

00000204 <main>:
     204:	e92d4810 	push	{r4, fp, lr}
     208:	e28db008 	add	fp, sp, #8
     20c:	e24dd00c 	sub	sp, sp, #12
     210:	e3a0300c 	mov	r3, #12
     214:	e50b3014 	str	r3, [fp, #-20]	; 0xffffffec
     218:	e3a0302d 	mov	r3, #45	; 0x2d
     21c:	e1a02003 	mov	r2, r3
     220:	e1a03002 	mov	r3, r2
     224:	e1a03103 	lsl	r3, r3, #2
     228:	e0833002 	add	r3, r3, r2
     22c:	e1a03083 	lsl	r3, r3, #1
     230:	e1a00003 	mov	r0, r3
     234:	eb000095 	bl	490 <malloc>
     238:	e1a03000 	mov	r3, r0
     23c:	e50b3010 	str	r3, [fp, #-16]
     240:	e51b3010 	ldr	r3, [fp, #-16]
     244:	e3530000 	cmp	r3, #0
     248:	1a000001 	bne	254 <main+0x50>
     24c:	e3e03000 	mvn	r3, #0
     250:	ea00000d 	b	28c <main+0x88>
     254:	e3a04000 	mov	r4, #0
     258:	ea000007 	b	27c <main+0x78>
     25c:	e51b0010 	ldr	r0, [fp, #-16]
     260:	eb00000e 	bl	2a0 <func>
     264:	e1a03000 	mov	r3, r0
     268:	e59f202c 	ldr	r2, [pc, #44]	; 29c <main+0x98>
     26c:	e5823000 	str	r3, [r2]
     270:	e51b3014 	ldr	r3, [fp, #-20]	; 0xffffffec
     274:	e2833001 	add	r3, r3, #1
     278:	e50b3014 	str	r3, [fp, #-20]	; 0xffffffec
     27c:	e3a0302d 	mov	r3, #45	; 0x2d
     280:	e1540003 	cmp	r4, r3
     284:	bafffff4 	blt	25c <main+0x58>
     288:	e3a03000 	mov	r3, #0
     28c:	e1a00003 	mov	r0, r3
     290:	e24bd008 	sub	sp, fp, #8
     294:	e8bd4810 	pop	{r4, fp, lr}
     298:	e12fff1e 	bx	lr
     29c:	2000088c 	andcs	r0, r0, ip, lsl #17

000002a0 <func>:
     2a0:	e52db004 	push	{fp}		; (str fp, [sp, #-4]!)
     2a4:	e28db000 	add	fp, sp, #0
     2a8:	e24dd014 	sub	sp, sp, #20
     2ac:	e50b0010 	str	r0, [fp, #-16]
     2b0:	e3a03000 	mov	r3, #0
     2b4:	e50b3008 	str	r3, [fp, #-8]
     2b8:	e59f30a4 	ldr	r3, [pc, #164]	; 364 <func+0xc4>
     2bc:	e50b300c 	str	r3, [fp, #-12]
     2c0:	e59f30a0 	ldr	r3, [pc, #160]	; 368 <func+0xc8>
     2c4:	e5933000 	ldr	r3, [r3]
     2c8:	e2833001 	add	r3, r3, #1
     2cc:	e59f2094 	ldr	r2, [pc, #148]	; 368 <func+0xc8>
     2d0:	e5823000 	str	r3, [r2]
     2d4:	e59f308c 	ldr	r3, [pc, #140]	; 368 <func+0xc8>
     2d8:	e5933000 	ldr	r3, [r3]
     2dc:	e1a03103 	lsl	r3, r3, #2
     2e0:	e59f2084 	ldr	r2, [pc, #132]	; 36c <func+0xcc>
     2e4:	e0833002 	add	r3, r3, r2
     2e8:	e51b2008 	ldr	r2, [fp, #-8]
     2ec:	e5832000 	str	r2, [r3]
     2f0:	e3a03000 	mov	r3, #0
     2f4:	e50b3008 	str	r3, [fp, #-8]
     2f8:	ea000010 	b	340 <func+0xa0>
     2fc:	e51b200c 	ldr	r2, [fp, #-12]
     300:	e51b3008 	ldr	r3, [fp, #-8]
     304:	e0823003 	add	r3, r2, r3
     308:	e5d33000 	ldrb	r3, [r3]
     30c:	e20330ff 	and	r3, r3, #255	; 0xff
     310:	e1a01003 	mov	r1, r3
     314:	e59f2050 	ldr	r2, [pc, #80]	; 36c <func+0xcc>
     318:	e51b3008 	ldr	r3, [fp, #-8]
     31c:	e7821103 	str	r1, [r2, r3, lsl #2]
     320:	e59f3040 	ldr	r3, [pc, #64]	; 368 <func+0xc8>
     324:	e5933000 	ldr	r3, [r3]
     328:	e2833001 	add	r3, r3, #1
     32c:	e59f2034 	ldr	r2, [pc, #52]	; 368 <func+0xc8>
     330:	e5823000 	str	r3, [r2]
     334:	e51b3008 	ldr	r3, [fp, #-8]
     338:	e2833001 	add	r3, r3, #1
     33c:	e50b3008 	str	r3, [fp, #-8]
     340:	e51b3008 	ldr	r3, [fp, #-8]
     344:	e3530005 	cmp	r3, #5
     348:	9affffeb 	bls	2fc <func+0x5c>
     34c:	e59f3014 	ldr	r3, [pc, #20]	; 368 <func+0xc8>
     350:	e5933000 	ldr	r3, [r3]
     354:	e1a00003 	mov	r0, r3
     358:	e28bd000 	add	sp, fp, #0
     35c:	e49db004 	pop	{fp}		; (ldr fp, [sp], #4)
     360:	e12fff1e 	bx	lr
     364:	000015ec 	andeq	r1, r0, ip, ror #11
     368:	20000894 	mulcs	r0, r4, r8
     36c:	20000008 	andcs	r0, r0, r8

00000370 <atexit>:
     370:	e3a03000 	mov	r3, #0
     374:	e92d4010 	push	{r4, lr}
     378:	e1a01000 	mov	r1, r0
     37c:	e1a02003 	mov	r2, r3
     380:	e1a00003 	mov	r0, r3
     384:	eb0002a7 	bl	e28 <__register_exitproc>
     388:	e8bd4010 	pop	{r4, lr}
     38c:	e12fff1e 	bx	lr

00000390 <exit>:
     390:	e92d4010 	push	{r4, lr}
     394:	e3a01000 	mov	r1, #0
     398:	e1a04000 	mov	r4, r0
     39c:	eb0002c4 	bl	eb4 <__call_exitprocs>
     3a0:	e59f3018 	ldr	r3, [pc, #24]	; 3c0 <exit+0x30>
     3a4:	e5930000 	ldr	r0, [r3]
     3a8:	e590303c 	ldr	r3, [r0, #60]	; 0x3c
     3ac:	e3530000 	cmp	r3, #0
     3b0:	11a0e00f 	movne	lr, pc
     3b4:	112fff13 	bxne	r3
     3b8:	e1a00004 	mov	r0, r4
     3bc:	eb000466 	bl	155c <_exit>
     3c0:	000015fc 	strdeq	r1, [r0], -ip

000003c4 <__libc_fini_array>:
     3c4:	e92d4070 	push	{r4, r5, r6, lr}
     3c8:	e59f5030 	ldr	r5, [pc, #48]	; 400 <__libc_fini_array+0x3c>
     3cc:	e59f4030 	ldr	r4, [pc, #48]	; 404 <__libc_fini_array+0x40>
     3d0:	e0454004 	sub	r4, r5, r4
     3d4:	e1b04144 	asrs	r4, r4, #2
     3d8:	0a000005 	beq	3f4 <__libc_fini_array+0x30>
     3dc:	e5353004 	ldr	r3, [r5, #-4]!
     3e0:	e2444001 	sub	r4, r4, #1
     3e4:	e1a0e00f 	mov	lr, pc
     3e8:	e12fff13 	bx	r3
     3ec:	e3540000 	cmp	r4, #0
     3f0:	1afffff9 	bne	3dc <__libc_fini_array+0x18>
     3f4:	eb00046b 	bl	15a8 <_fini>
     3f8:	e8bd4070 	pop	{r4, r5, r6, lr}
     3fc:	e12fff1e 	bx	lr
	...

00000408 <__libc_init_array>:
     408:	e92d4070 	push	{r4, r5, r6, lr}
     40c:	e59f606c 	ldr	r6, [pc, #108]	; 480 <__libc_init_array+0x78>
     410:	e59f506c 	ldr	r5, [pc, #108]	; 484 <__libc_init_array+0x7c>
     414:	e0466005 	sub	r6, r6, r5
     418:	e1b06146 	asrs	r6, r6, #2
     41c:	0a000007 	beq	440 <__libc_init_array+0x38>
     420:	e3a04000 	mov	r4, #0
     424:	e2455004 	sub	r5, r5, #4
     428:	e5b53004 	ldr	r3, [r5, #4]!
     42c:	e2844001 	add	r4, r4, #1
     430:	e1a0e00f 	mov	lr, pc
     434:	e12fff13 	bx	r3
     438:	e1560004 	cmp	r6, r4
     43c:	1afffff9 	bne	428 <__libc_init_array+0x20>
     440:	e59f6040 	ldr	r6, [pc, #64]	; 488 <__libc_init_array+0x80>
     444:	e59f5040 	ldr	r5, [pc, #64]	; 48c <__libc_init_array+0x84>
     448:	e0466005 	sub	r6, r6, r5
     44c:	eb00044f 	bl	1590 <_init>
     450:	e1b06146 	asrs	r6, r6, #2
     454:	0a000007 	beq	478 <__libc_init_array+0x70>
     458:	e3a04000 	mov	r4, #0
     45c:	e2455004 	sub	r5, r5, #4
     460:	e5b53004 	ldr	r3, [r5, #4]!
     464:	e2844001 	add	r4, r4, #1
     468:	e1a0e00f 	mov	lr, pc
     46c:	e12fff13 	bx	r3
     470:	e1560004 	cmp	r6, r4
     474:	1afffff9 	bne	460 <__libc_init_array+0x58>
     478:	e8bd4070 	pop	{r4, r5, r6, lr}
     47c:	e12fff1e 	bx	lr
	...
     488:	00001590 	muleq	r0, r0, r5
     48c:	00001588 	andeq	r1, r0, r8, lsl #11

00000490 <malloc>:
     490:	e92d4010 	push	{r4, lr}
     494:	e59f3010 	ldr	r3, [pc, #16]	; 4ac <malloc+0x1c>
     498:	e1a01000 	mov	r1, r0
     49c:	e5930000 	ldr	r0, [r3]
     4a0:	eb00000a 	bl	4d0 <_malloc_r>
     4a4:	e8bd4010 	pop	{r4, lr}
     4a8:	e12fff1e 	bx	lr
     4ac:	20000030 	andcs	r0, r0, r0, lsr r0

000004b0 <free>:
     4b0:	e92d4010 	push	{r4, lr}
     4b4:	e59f3010 	ldr	r3, [pc, #16]	; 4cc <free+0x1c>
     4b8:	e1a01000 	mov	r1, r0
     4bc:	e5930000 	ldr	r0, [r3]
     4c0:	eb000301 	bl	10cc <_free_r>
     4c4:	e8bd4010 	pop	{r4, lr}
     4c8:	e12fff1e 	bx	lr
     4cc:	20000030 	andcs	r0, r0, r0, lsr r0

000004d0 <_malloc_r>:
     4d0:	e92d4ff0 	push	{r4, r5, r6, r7, r8, r9, sl, fp, lr}
     4d4:	e281300b 	add	r3, r1, #11
     4d8:	e3530016 	cmp	r3, #22
     4dc:	e1a07000 	mov	r7, r0
     4e0:	e24dd00c 	sub	sp, sp, #12
     4e4:	8a00001c 	bhi	55c <_malloc_r+0x8c>
     4e8:	e3510010 	cmp	r1, #16
     4ec:	8a00003e 	bhi	5ec <_malloc_r+0x11c>
     4f0:	eb000239 	bl	ddc <__malloc_lock>
     4f4:	e3a05010 	mov	r5, #16
     4f8:	e3a02018 	mov	r2, #24
     4fc:	e3a0c002 	mov	ip, #2
     500:	e59f87a8 	ldr	r8, [pc, #1960]	; cb0 <_malloc_r+0x7e0>
     504:	e0882002 	add	r2, r8, r2
     508:	e5924004 	ldr	r4, [r2, #4]
     50c:	e2423008 	sub	r3, r2, #8
     510:	e1540003 	cmp	r4, r3
     514:	0a00003b 	beq	608 <_malloc_r+0x138>
     518:	e5943004 	ldr	r3, [r4, #4]
     51c:	e594200c 	ldr	r2, [r4, #12]
     520:	e5941008 	ldr	r1, [r4, #8]
     524:	e3c33003 	bic	r3, r3, #3
     528:	e0843003 	add	r3, r4, r3
     52c:	e581200c 	str	r2, [r1, #12]
     530:	e5821008 	str	r1, [r2, #8]
     534:	e5932004 	ldr	r2, [r3, #4]
     538:	e3822001 	orr	r2, r2, #1
     53c:	e1a00007 	mov	r0, r7
     540:	e5832004 	str	r2, [r3, #4]
     544:	e2844008 	add	r4, r4, #8
     548:	eb000224 	bl	de0 <__malloc_unlock>
     54c:	e1a00004 	mov	r0, r4
     550:	e28dd00c 	add	sp, sp, #12
     554:	e8bd4ff0 	pop	{r4, r5, r6, r7, r8, r9, sl, fp, lr}
     558:	e12fff1e 	bx	lr
     55c:	e3c35007 	bic	r5, r3, #7
     560:	e1510005 	cmp	r1, r5
     564:	93a01000 	movls	r1, #0
     568:	83a01001 	movhi	r1, #1
     56c:	e1913fa3 	orrs	r3, r1, r3, lsr #31
     570:	1a00001d 	bne	5ec <_malloc_r+0x11c>
     574:	eb000218 	bl	ddc <__malloc_lock>
     578:	e3550f7e 	cmp	r5, #504	; 0x1f8
     57c:	3a00013b 	bcc	a70 <_malloc_r+0x5a0>
     580:	e1b034a5 	lsrs	r3, r5, #9
     584:	0a0000ae 	beq	844 <_malloc_r+0x374>
     588:	e3530004 	cmp	r3, #4
     58c:	8a00011d 	bhi	a08 <_malloc_r+0x538>
     590:	e1a03325 	lsr	r3, r5, #6
     594:	e283c039 	add	ip, r3, #57	; 0x39
     598:	e283e038 	add	lr, r3, #56	; 0x38
     59c:	e1a0018c 	lsl	r0, ip, #3
     5a0:	e59f8708 	ldr	r8, [pc, #1800]	; cb0 <_malloc_r+0x7e0>
     5a4:	e0880000 	add	r0, r8, r0
     5a8:	e5903004 	ldr	r3, [r0, #4]
     5ac:	e2400008 	sub	r0, r0, #8
     5b0:	e1500003 	cmp	r0, r3
     5b4:	1a000005 	bne	5d0 <_malloc_r+0x100>
     5b8:	ea000016 	b	618 <_malloc_r+0x148>
     5bc:	e3510000 	cmp	r1, #0
     5c0:	aa0000e6 	bge	960 <_malloc_r+0x490>
     5c4:	e593300c 	ldr	r3, [r3, #12]
     5c8:	e1500003 	cmp	r0, r3
     5cc:	0a000011 	beq	618 <_malloc_r+0x148>
     5d0:	e5932004 	ldr	r2, [r3, #4]
     5d4:	e3c22003 	bic	r2, r2, #3
     5d8:	e0421005 	sub	r1, r2, r5
     5dc:	e351000f 	cmp	r1, #15
     5e0:	dafffff5 	ble	5bc <_malloc_r+0xec>
     5e4:	e1a0c00e 	mov	ip, lr
     5e8:	ea00000a 	b	618 <_malloc_r+0x148>
     5ec:	e3a04000 	mov	r4, #0
     5f0:	e3a0300c 	mov	r3, #12
     5f4:	e1a00004 	mov	r0, r4
     5f8:	e5873000 	str	r3, [r7]
     5fc:	e28dd00c 	add	sp, sp, #12
     600:	e8bd4ff0 	pop	{r4, r5, r6, r7, r8, r9, sl, fp, lr}
     604:	e12fff1e 	bx	lr
     608:	e592400c 	ldr	r4, [r2, #12]
     60c:	e1520004 	cmp	r2, r4
     610:	028cc002 	addeq	ip, ip, #2
     614:	1affffbf 	bne	518 <_malloc_r+0x48>
     618:	e5984010 	ldr	r4, [r8, #16]
     61c:	e59fe690 	ldr	lr, [pc, #1680]	; cb4 <_malloc_r+0x7e4>
     620:	e154000e 	cmp	r4, lr
     624:	05986004 	ldreq	r6, [r8, #4]
     628:	0a000018 	beq	690 <_malloc_r+0x1c0>
     62c:	e5941004 	ldr	r1, [r4, #4]
     630:	e3c11003 	bic	r1, r1, #3
     634:	e0413005 	sub	r3, r1, r5
     638:	e353000f 	cmp	r3, #15
     63c:	ca00010e 	bgt	a7c <_malloc_r+0x5ac>
     640:	e3530000 	cmp	r3, #0
     644:	e588e014 	str	lr, [r8, #20]
     648:	e588e010 	str	lr, [r8, #16]
     64c:	aa0000ae 	bge	90c <_malloc_r+0x43c>
     650:	e3510c02 	cmp	r1, #512	; 0x200
     654:	2a0000d0 	bcs	99c <_malloc_r+0x4cc>
     658:	e3a02001 	mov	r2, #1
     65c:	e5986004 	ldr	r6, [r8, #4]
     660:	e1a031a1 	lsr	r3, r1, #3
     664:	e0833002 	add	r3, r3, r2
     668:	e1a012a1 	lsr	r1, r1, #5
     66c:	e1866112 	orr	r6, r6, r2, lsl r1
     670:	e7981183 	ldr	r1, [r8, r3, lsl #3]
     674:	e0882183 	add	r2, r8, r3, lsl #3
     678:	e2422008 	sub	r2, r2, #8
     67c:	e5841008 	str	r1, [r4, #8]
     680:	e584200c 	str	r2, [r4, #12]
     684:	e5886004 	str	r6, [r8, #4]
     688:	e7884183 	str	r4, [r8, r3, lsl #3]
     68c:	e581400c 	str	r4, [r1, #12]
     690:	e3a01001 	mov	r1, #1
     694:	e1a0314c 	asr	r3, ip, #2
     698:	e1a01311 	lsl	r1, r1, r3
     69c:	e1510006 	cmp	r1, r6
     6a0:	9a00006b 	bls	854 <_malloc_r+0x384>
     6a4:	e5984008 	ldr	r4, [r8, #8]
     6a8:	e5946004 	ldr	r6, [r4, #4]
     6ac:	e3c66003 	bic	r6, r6, #3
     6b0:	e1550006 	cmp	r5, r6
     6b4:	93a02000 	movls	r2, #0
     6b8:	83a02001 	movhi	r2, #1
     6bc:	e0463005 	sub	r3, r6, r5
     6c0:	e353000f 	cmp	r3, #15
     6c4:	d3822001 	orrle	r2, r2, #1
     6c8:	e3520000 	cmp	r2, #0
     6cc:	0a000096 	beq	92c <_malloc_r+0x45c>
     6d0:	e5983408 	ldr	r3, [r8, #1032]	; 0x408
     6d4:	e59fa5dc 	ldr	sl, [pc, #1500]	; cb8 <_malloc_r+0x7e8>
     6d8:	e3730001 	cmn	r3, #1
     6dc:	e59a3000 	ldr	r3, [sl]
     6e0:	e0853003 	add	r3, r5, r3
     6e4:	12833a01 	addne	r3, r3, #4096	; 0x1000
     6e8:	1283300f 	addne	r3, r3, #15
     6ec:	13c39eff 	bicne	r9, r3, #4080	; 0xff0
     6f0:	02839010 	addeq	r9, r3, #16
     6f4:	13c9900f 	bicne	r9, r9, #15
     6f8:	e1a01009 	mov	r1, r9
     6fc:	e1a00007 	mov	r0, r7
     700:	eb0001b7 	bl	de4 <_sbrk_r>
     704:	e3700001 	cmn	r0, #1
     708:	e1a02000 	mov	r2, r0
     70c:	e084b006 	add	fp, r4, r6
     710:	0a000128 	beq	bb8 <_malloc_r+0x6e8>
     714:	e1540008 	cmp	r4, r8
     718:	115b0000 	cmpne	fp, r0
     71c:	8a000125 	bhi	bb8 <_malloc_r+0x6e8>
     720:	e59a1004 	ldr	r1, [sl, #4]
     724:	e15b0000 	cmp	fp, r0
     728:	e0891001 	add	r1, r9, r1
     72c:	e58a1004 	str	r1, [sl, #4]
     730:	0a000117 	beq	b94 <_malloc_r+0x6c4>
     734:	e5983408 	ldr	r3, [r8, #1032]	; 0x408
     738:	e3730001 	cmn	r3, #1
     73c:	1042b00b 	subne	fp, r2, fp
     740:	108b1001 	addne	r1, fp, r1
     744:	05882408 	streq	r2, [r8, #1032]	; 0x408
     748:	158a1004 	strne	r1, [sl, #4]
     74c:	e2123007 	ands	r3, r2, #7
     750:	1a0000e0 	bne	ad8 <_malloc_r+0x608>
     754:	e0821009 	add	r1, r2, r9
     758:	e2611000 	rsb	r1, r1, #0
     75c:	e1a0ba01 	lsl	fp, r1, #20
     760:	e1a0ba2b 	lsr	fp, fp, #20
     764:	e1a0100b 	mov	r1, fp
     768:	e1a00007 	mov	r0, r7
     76c:	e58d3004 	str	r3, [sp, #4]
     770:	e58d2000 	str	r2, [sp]
     774:	eb00019a 	bl	de4 <_sbrk_r>
     778:	e89d000c 	ldm	sp, {r2, r3}
     77c:	e3700001 	cmn	r0, #1
     780:	01a0b003 	moveq	fp, r3
     784:	0a000001 	beq	790 <_malloc_r+0x2c0>
     788:	e0403002 	sub	r3, r0, r2
     78c:	e083900b 	add	r9, r3, fp
     790:	e59a1004 	ldr	r1, [sl, #4]
     794:	e3893001 	orr	r3, r9, #1
     798:	e08b1001 	add	r1, fp, r1
     79c:	e1540008 	cmp	r4, r8
     7a0:	e5882008 	str	r2, [r8, #8]
     7a4:	e58a1004 	str	r1, [sl, #4]
     7a8:	e5823004 	str	r3, [r2, #4]
     7ac:	0a000118 	beq	c14 <_malloc_r+0x744>
     7b0:	e356000f 	cmp	r6, #15
     7b4:	93a03001 	movls	r3, #1
     7b8:	95823004 	strls	r3, [r2, #4]
     7bc:	9a00001c 	bls	834 <_malloc_r+0x364>
     7c0:	e3a0c005 	mov	ip, #5
     7c4:	e5940004 	ldr	r0, [r4, #4]
     7c8:	e246300c 	sub	r3, r6, #12
     7cc:	e3c33007 	bic	r3, r3, #7
     7d0:	e2000001 	and	r0, r0, #1
     7d4:	e1800003 	orr	r0, r0, r3
     7d8:	e353000f 	cmp	r3, #15
     7dc:	e0843003 	add	r3, r4, r3
     7e0:	e5840004 	str	r0, [r4, #4]
     7e4:	e583c004 	str	ip, [r3, #4]
     7e8:	e583c008 	str	ip, [r3, #8]
     7ec:	8a000119 	bhi	c58 <_malloc_r+0x788>
     7f0:	e1a04002 	mov	r4, r2
     7f4:	e5923004 	ldr	r3, [r2, #4]
     7f8:	e59a202c 	ldr	r2, [sl, #44]	; 0x2c
     7fc:	e1520001 	cmp	r2, r1
     800:	e59a2030 	ldr	r2, [sl, #48]	; 0x30
     804:	358a102c 	strcc	r1, [sl, #44]	; 0x2c
     808:	e1520001 	cmp	r2, r1
     80c:	358a1030 	strcc	r1, [sl, #48]	; 0x30
     810:	e3c39003 	bic	r9, r3, #3
     814:	e0493005 	sub	r3, r9, r5
     818:	e353000f 	cmp	r3, #15
     81c:	c3a02000 	movgt	r2, #0
     820:	d3a02001 	movle	r2, #1
     824:	e1550009 	cmp	r5, r9
     828:	83822001 	orrhi	r2, r2, #1
     82c:	e3520000 	cmp	r2, #0
     830:	0a00003d 	beq	92c <_malloc_r+0x45c>
     834:	e1a00007 	mov	r0, r7
     838:	eb000168 	bl	de0 <__malloc_unlock>
     83c:	e3a04000 	mov	r4, #0
     840:	eaffff41 	b	54c <_malloc_r+0x7c>
     844:	e3a00c02 	mov	r0, #512	; 0x200
     848:	e3a0c040 	mov	ip, #64	; 0x40
     84c:	e3a0e03f 	mov	lr, #63	; 0x3f
     850:	eaffff52 	b	5a0 <_malloc_r+0xd0>
     854:	e1110006 	tst	r1, r6
     858:	1a000008 	bne	880 <_malloc_r+0x3b0>
     85c:	e1a01081 	lsl	r1, r1, #1
     860:	e3ccc003 	bic	ip, ip, #3
     864:	e1110006 	tst	r1, r6
     868:	e28cc004 	add	ip, ip, #4
     86c:	1a000003 	bne	880 <_malloc_r+0x3b0>
     870:	e1a01081 	lsl	r1, r1, #1
     874:	e1110006 	tst	r1, r6
     878:	e28cc004 	add	ip, ip, #4
     87c:	0afffffb 	beq	870 <_malloc_r+0x3a0>
     880:	e088918c 	add	r9, r8, ip, lsl #3
     884:	e1a00009 	mov	r0, r9
     888:	e1a0400c 	mov	r4, ip
     88c:	e590600c 	ldr	r6, [r0, #12]
     890:	e1500006 	cmp	r0, r6
     894:	1a000005 	bne	8b0 <_malloc_r+0x3e0>
     898:	ea000063 	b	a2c <_malloc_r+0x55c>
     89c:	e3520000 	cmp	r2, #0
     8a0:	aa000066 	bge	a40 <_malloc_r+0x570>
     8a4:	e596600c 	ldr	r6, [r6, #12]
     8a8:	e1500006 	cmp	r0, r6
     8ac:	0a00005e 	beq	a2c <_malloc_r+0x55c>
     8b0:	e5963004 	ldr	r3, [r6, #4]
     8b4:	e3c33003 	bic	r3, r3, #3
     8b8:	e0432005 	sub	r2, r3, r5
     8bc:	e352000f 	cmp	r2, #15
     8c0:	dafffff5 	ble	89c <_malloc_r+0x3cc>
     8c4:	e2864008 	add	r4, r6, #8
     8c8:	e8941010 	ldm	r4, {r4, ip}
     8cc:	e0861005 	add	r1, r6, r5
     8d0:	e3855001 	orr	r5, r5, #1
     8d4:	e5865004 	str	r5, [r6, #4]
     8d8:	e584c00c 	str	ip, [r4, #12]
     8dc:	e58c4008 	str	r4, [ip, #8]
     8e0:	e382c001 	orr	ip, r2, #1
     8e4:	e5881014 	str	r1, [r8, #20]
     8e8:	e5881010 	str	r1, [r8, #16]
     8ec:	e1a00007 	mov	r0, r7
     8f0:	e581e00c 	str	lr, [r1, #12]
     8f4:	e581e008 	str	lr, [r1, #8]
     8f8:	e581c004 	str	ip, [r1, #4]
     8fc:	e7862003 	str	r2, [r6, r3]
     900:	eb000136 	bl	de0 <__malloc_unlock>
     904:	e2864008 	add	r4, r6, #8
     908:	eaffff0f 	b	54c <_malloc_r+0x7c>
     90c:	e0841001 	add	r1, r4, r1
     910:	e5913004 	ldr	r3, [r1, #4]
     914:	e3833001 	orr	r3, r3, #1
     918:	e1a00007 	mov	r0, r7
     91c:	e5813004 	str	r3, [r1, #4]
     920:	eb00012e 	bl	de0 <__malloc_unlock>
     924:	e2844008 	add	r4, r4, #8
     928:	eaffff07 	b	54c <_malloc_r+0x7c>
     92c:	e0842005 	add	r2, r4, r5
     930:	e3833001 	orr	r3, r3, #1
     934:	e3855001 	orr	r5, r5, #1
     938:	e5845004 	str	r5, [r4, #4]
     93c:	e1a00007 	mov	r0, r7
     940:	e5882008 	str	r2, [r8, #8]
     944:	e2844008 	add	r4, r4, #8
     948:	e5823004 	str	r3, [r2, #4]
     94c:	eb000123 	bl	de0 <__malloc_unlock>
     950:	e1a00004 	mov	r0, r4
     954:	e28dd00c 	add	sp, sp, #12
     958:	e8bd4ff0 	pop	{r4, r5, r6, r7, r8, r9, sl, fp, lr}
     95c:	e12fff1e 	bx	lr
     960:	e593100c 	ldr	r1, [r3, #12]
     964:	e593c008 	ldr	ip, [r3, #8]
     968:	e0832002 	add	r2, r3, r2
     96c:	e58c100c 	str	r1, [ip, #12]
     970:	e581c008 	str	ip, [r1, #8]
     974:	e5921004 	ldr	r1, [r2, #4]
     978:	e2834008 	add	r4, r3, #8
     97c:	e3813001 	orr	r3, r1, #1
     980:	e1a00007 	mov	r0, r7
     984:	e5823004 	str	r3, [r2, #4]
     988:	eb000114 	bl	de0 <__malloc_unlock>
     98c:	e1a00004 	mov	r0, r4
     990:	e28dd00c 	add	sp, sp, #12
     994:	e8bd4ff0 	pop	{r4, r5, r6, r7, r8, r9, sl, fp, lr}
     998:	e12fff1e 	bx	lr
     99c:	e3510c0a 	cmp	r1, #2560	; 0xa00
     9a0:	e1a034a1 	lsr	r3, r1, #9
     9a4:	3a000042 	bcc	ab4 <_malloc_r+0x5e4>
     9a8:	e3530014 	cmp	r3, #20
     9ac:	8a00008a 	bhi	bdc <_malloc_r+0x70c>
     9b0:	e283205c 	add	r2, r3, #92	; 0x5c
     9b4:	e1a02182 	lsl	r2, r2, #3
     9b8:	e283305b 	add	r3, r3, #91	; 0x5b
     9bc:	e7980002 	ldr	r0, [r8, r2]
     9c0:	e0882002 	add	r2, r8, r2
     9c4:	e2422008 	sub	r2, r2, #8
     9c8:	e1520000 	cmp	r2, r0
     9cc:	0a00007c 	beq	bc4 <_malloc_r+0x6f4>
     9d0:	e5903004 	ldr	r3, [r0, #4]
     9d4:	e3c33003 	bic	r3, r3, #3
     9d8:	e1530001 	cmp	r3, r1
     9dc:	9a000002 	bls	9ec <_malloc_r+0x51c>
     9e0:	e5900008 	ldr	r0, [r0, #8]
     9e4:	e1520000 	cmp	r2, r0
     9e8:	1afffff8 	bne	9d0 <_malloc_r+0x500>
     9ec:	e590200c 	ldr	r2, [r0, #12]
     9f0:	e5986004 	ldr	r6, [r8, #4]
     9f4:	e584200c 	str	r2, [r4, #12]
     9f8:	e5840008 	str	r0, [r4, #8]
     9fc:	e5824008 	str	r4, [r2, #8]
     a00:	e580400c 	str	r4, [r0, #12]
     a04:	eaffff21 	b	690 <_malloc_r+0x1c0>
     a08:	e3530014 	cmp	r3, #20
     a0c:	9a00002d 	bls	ac8 <_malloc_r+0x5f8>
     a10:	e3530054 	cmp	r3, #84	; 0x54
     a14:	8a000077 	bhi	bf8 <_malloc_r+0x728>
     a18:	e1a03625 	lsr	r3, r5, #12
     a1c:	e283c06f 	add	ip, r3, #111	; 0x6f
     a20:	e283e06e 	add	lr, r3, #110	; 0x6e
     a24:	e1a0018c 	lsl	r0, ip, #3
     a28:	eafffedc 	b	5a0 <_malloc_r+0xd0>
     a2c:	e2844001 	add	r4, r4, #1
     a30:	e3140003 	tst	r4, #3
     a34:	e2800008 	add	r0, r0, #8
     a38:	1affff93 	bne	88c <_malloc_r+0x3bc>
     a3c:	ea00003f 	b	b40 <_malloc_r+0x670>
     a40:	e1a04006 	mov	r4, r6
     a44:	e0863003 	add	r3, r6, r3
     a48:	e5932004 	ldr	r2, [r3, #4]
     a4c:	e3822001 	orr	r2, r2, #1
     a50:	e596100c 	ldr	r1, [r6, #12]
     a54:	e5832004 	str	r2, [r3, #4]
     a58:	e5b43008 	ldr	r3, [r4, #8]!
     a5c:	e1a00007 	mov	r0, r7
     a60:	e583100c 	str	r1, [r3, #12]
     a64:	e5813008 	str	r3, [r1, #8]
     a68:	eb0000dc 	bl	de0 <__malloc_unlock>
     a6c:	eafffeb6 	b	54c <_malloc_r+0x7c>
     a70:	e1a0c1a5 	lsr	ip, r5, #3
     a74:	e2852008 	add	r2, r5, #8
     a78:	eafffea0 	b	500 <_malloc_r+0x30>
     a7c:	e0842005 	add	r2, r4, r5
     a80:	e383c001 	orr	ip, r3, #1
     a84:	e3855001 	orr	r5, r5, #1
     a88:	e5845004 	str	r5, [r4, #4]
     a8c:	e1a00007 	mov	r0, r7
     a90:	e5882014 	str	r2, [r8, #20]
     a94:	e5882010 	str	r2, [r8, #16]
     a98:	e582e00c 	str	lr, [r2, #12]
     a9c:	e582e008 	str	lr, [r2, #8]
     aa0:	e582c004 	str	ip, [r2, #4]
     aa4:	e7843001 	str	r3, [r4, r1]
     aa8:	eb0000cc 	bl	de0 <__malloc_unlock>
     aac:	e2844008 	add	r4, r4, #8
     ab0:	eafffea5 	b	54c <_malloc_r+0x7c>
     ab4:	e1a03321 	lsr	r3, r1, #6
     ab8:	e2832039 	add	r2, r3, #57	; 0x39
     abc:	e1a02182 	lsl	r2, r2, #3
     ac0:	e2833038 	add	r3, r3, #56	; 0x38
     ac4:	eaffffbc 	b	9bc <_malloc_r+0x4ec>
     ac8:	e283c05c 	add	ip, r3, #92	; 0x5c
     acc:	e283e05b 	add	lr, r3, #91	; 0x5b
     ad0:	e1a0018c 	lsl	r0, ip, #3
     ad4:	eafffeb1 	b	5a0 <_malloc_r+0xd0>
     ad8:	e2631008 	rsb	r1, r3, #8
     adc:	e0822001 	add	r2, r2, r1
     ae0:	e2631a01 	rsb	r1, r3, #4096	; 0x1000
     ae4:	e0829009 	add	r9, r2, r9
     ae8:	e2811008 	add	r1, r1, #8
     aec:	e0411009 	sub	r1, r1, r9
     af0:	e1a0ba01 	lsl	fp, r1, #20
     af4:	e1a0ba2b 	lsr	fp, fp, #20
     af8:	e1a0100b 	mov	r1, fp
     afc:	e1a00007 	mov	r0, r7
     b00:	e58d2004 	str	r2, [sp, #4]
     b04:	e58d3000 	str	r3, [sp]
     b08:	eb0000b5 	bl	de4 <_sbrk_r>
     b0c:	e3700001 	cmn	r0, #1
     b10:	e59d3000 	ldr	r3, [sp]
     b14:	e59d2004 	ldr	r2, [sp, #4]
     b18:	1affff1a 	bne	788 <_malloc_r+0x2b8>
     b1c:	e2433008 	sub	r3, r3, #8
     b20:	e0899003 	add	r9, r9, r3
     b24:	e3a0b000 	mov	fp, #0
     b28:	e0499002 	sub	r9, r9, r2
     b2c:	eaffff17 	b	790 <_malloc_r+0x2c0>
     b30:	e4193008 	ldr	r3, [r9], #-8
     b34:	e1530009 	cmp	r3, r9
     b38:	e24cc001 	sub	ip, ip, #1
     b3c:	1a000059 	bne	ca8 <_malloc_r+0x7d8>
     b40:	e31c0003 	tst	ip, #3
     b44:	1afffff9 	bne	b30 <_malloc_r+0x660>
     b48:	e5983004 	ldr	r3, [r8, #4]
     b4c:	e1c33001 	bic	r3, r3, r1
     b50:	e5883004 	str	r3, [r8, #4]
     b54:	e1b01081 	lsls	r1, r1, #1
     b58:	13a02001 	movne	r2, #1
     b5c:	03a02000 	moveq	r2, #0
     b60:	e1510003 	cmp	r1, r3
     b64:	83a02000 	movhi	r2, #0
     b68:	92022001 	andls	r2, r2, #1
     b6c:	e3520000 	cmp	r2, #0
     b70:	0afffecb 	beq	6a4 <_malloc_r+0x1d4>
     b74:	e1110003 	tst	r1, r3
     b78:	1a000003 	bne	b8c <_malloc_r+0x6bc>
     b7c:	e1a01081 	lsl	r1, r1, #1
     b80:	e1110003 	tst	r1, r3
     b84:	e2844004 	add	r4, r4, #4
     b88:	0afffffb 	beq	b7c <_malloc_r+0x6ac>
     b8c:	e1a0c004 	mov	ip, r4
     b90:	eaffff3a 	b	880 <_malloc_r+0x3b0>
     b94:	e1a03a0b 	lsl	r3, fp, #20
     b98:	e1a03a23 	lsr	r3, r3, #20
     b9c:	e3530000 	cmp	r3, #0
     ba0:	1afffee3 	bne	734 <_malloc_r+0x264>
     ba4:	e5984008 	ldr	r4, [r8, #8]
     ba8:	e0863009 	add	r3, r6, r9
     bac:	e3833001 	orr	r3, r3, #1
     bb0:	e5843004 	str	r3, [r4, #4]
     bb4:	eaffff0f 	b	7f8 <_malloc_r+0x328>
     bb8:	e5984008 	ldr	r4, [r8, #8]
     bbc:	e5943004 	ldr	r3, [r4, #4]
     bc0:	eaffff12 	b	810 <_malloc_r+0x340>
     bc4:	e3a01001 	mov	r1, #1
     bc8:	e5986004 	ldr	r6, [r8, #4]
     bcc:	e1a03143 	asr	r3, r3, #2
     bd0:	e1866311 	orr	r6, r6, r1, lsl r3
     bd4:	e5886004 	str	r6, [r8, #4]
     bd8:	eaffff85 	b	9f4 <_malloc_r+0x524>
     bdc:	e3530054 	cmp	r3, #84	; 0x54
     be0:	8a00000d 	bhi	c1c <_malloc_r+0x74c>
     be4:	e1a03621 	lsr	r3, r1, #12
     be8:	e283206f 	add	r2, r3, #111	; 0x6f
     bec:	e1a02182 	lsl	r2, r2, #3
     bf0:	e283306e 	add	r3, r3, #110	; 0x6e
     bf4:	eaffff70 	b	9bc <_malloc_r+0x4ec>
     bf8:	e3530f55 	cmp	r3, #340	; 0x154
     bfc:	8a00000d 	bhi	c38 <_malloc_r+0x768>
     c00:	e1a037a5 	lsr	r3, r5, #15
     c04:	e283c078 	add	ip, r3, #120	; 0x78
     c08:	e283e077 	add	lr, r3, #119	; 0x77
     c0c:	e1a0018c 	lsl	r0, ip, #3
     c10:	eafffe62 	b	5a0 <_malloc_r+0xd0>
     c14:	e1a04002 	mov	r4, r2
     c18:	eafffef6 	b	7f8 <_malloc_r+0x328>
     c1c:	e3530f55 	cmp	r3, #340	; 0x154
     c20:	8a000013 	bhi	c74 <_malloc_r+0x7a4>
     c24:	e1a037a1 	lsr	r3, r1, #15
     c28:	e2832078 	add	r2, r3, #120	; 0x78
     c2c:	e1a02182 	lsl	r2, r2, #3
     c30:	e2833077 	add	r3, r3, #119	; 0x77
     c34:	eaffff60 	b	9bc <_malloc_r+0x4ec>
     c38:	e59f207c 	ldr	r2, [pc, #124]	; cbc <_malloc_r+0x7ec>
     c3c:	e1530002 	cmp	r3, r2
     c40:	8a000014 	bhi	c98 <_malloc_r+0x7c8>
     c44:	e1a03925 	lsr	r3, r5, #18
     c48:	e283c07d 	add	ip, r3, #125	; 0x7d
     c4c:	e283e07c 	add	lr, r3, #124	; 0x7c
     c50:	e1a0018c 	lsl	r0, ip, #3
     c54:	eafffe51 	b	5a0 <_malloc_r+0xd0>
     c58:	e2841008 	add	r1, r4, #8
     c5c:	e1a00007 	mov	r0, r7
     c60:	eb000119 	bl	10cc <_free_r>
     c64:	e5984008 	ldr	r4, [r8, #8]
     c68:	e59a1004 	ldr	r1, [sl, #4]
     c6c:	e5943004 	ldr	r3, [r4, #4]
     c70:	eafffee0 	b	7f8 <_malloc_r+0x328>
     c74:	e59f2040 	ldr	r2, [pc, #64]	; cbc <_malloc_r+0x7ec>
     c78:	e1530002 	cmp	r3, r2
     c7c:	91a03921 	lsrls	r3, r1, #18
     c80:	9283207d 	addls	r2, r3, #125	; 0x7d
     c84:	83a02ffe 	movhi	r2, #1016	; 0x3f8
     c88:	83a0307e 	movhi	r3, #126	; 0x7e
     c8c:	9283307c 	addls	r3, r3, #124	; 0x7c
     c90:	91a02182 	lslls	r2, r2, #3
     c94:	eaffff48 	b	9bc <_malloc_r+0x4ec>
     c98:	e3a00ffe 	mov	r0, #1016	; 0x3f8
     c9c:	e3a0c07f 	mov	ip, #127	; 0x7f
     ca0:	e3a0e07e 	mov	lr, #126	; 0x7e
     ca4:	eafffe3d 	b	5a0 <_malloc_r+0xd0>
     ca8:	e5983004 	ldr	r3, [r8, #4]
     cac:	eaffffa8 	b	b54 <_malloc_r+0x684>
     cb0:	20000460 	andcs	r0, r0, r0, ror #8
     cb4:	20000468 	andcs	r0, r0, r8, ror #8
     cb8:	20000898 	mulcs	r0, r8, r8
     cbc:	00000554 	andeq	r0, r0, r4, asr r5

00000cc0 <memset>:
     cc0:	e3100003 	tst	r0, #3
     cc4:	0a000040 	beq	dcc <memset+0x10c>
     cc8:	e3520000 	cmp	r2, #0
     ccc:	e2422001 	sub	r2, r2, #1
     cd0:	012fff1e 	bxeq	lr
     cd4:	e1a03000 	mov	r3, r0
     cd8:	e201c0ff 	and	ip, r1, #255	; 0xff
     cdc:	ea000002 	b	cec <memset+0x2c>
     ce0:	e2422001 	sub	r2, r2, #1
     ce4:	e3720001 	cmn	r2, #1
     ce8:	012fff1e 	bxeq	lr
     cec:	e4c3c001 	strb	ip, [r3], #1
     cf0:	e3130003 	tst	r3, #3
     cf4:	1afffff9 	bne	ce0 <memset+0x20>
     cf8:	e3520003 	cmp	r2, #3
     cfc:	9a000028 	bls	da4 <memset+0xe4>
     d00:	e92d4030 	push	{r4, r5, lr}
     d04:	e201e0ff 	and	lr, r1, #255	; 0xff
     d08:	e18ee40e 	orr	lr, lr, lr, lsl #8
     d0c:	e352000f 	cmp	r2, #15
     d10:	e18ee80e 	orr	lr, lr, lr, lsl #16
     d14:	9a00002e 	bls	dd4 <memset+0x114>
     d18:	e242c010 	sub	ip, r2, #16
     d1c:	e3cc400f 	bic	r4, ip, #15
     d20:	e2835020 	add	r5, r3, #32
     d24:	e0855004 	add	r5, r5, r4
     d28:	e1a0422c 	lsr	r4, ip, #4
     d2c:	e283c010 	add	ip, r3, #16
     d30:	e50ce010 	str	lr, [ip, #-16]
     d34:	e50ce00c 	str	lr, [ip, #-12]
     d38:	e50ce008 	str	lr, [ip, #-8]
     d3c:	e50ce004 	str	lr, [ip, #-4]
     d40:	e28cc010 	add	ip, ip, #16
     d44:	e15c0005 	cmp	ip, r5
     d48:	1afffff8 	bne	d30 <memset+0x70>
     d4c:	e284c001 	add	ip, r4, #1
     d50:	e312000c 	tst	r2, #12
     d54:	e083c20c 	add	ip, r3, ip, lsl #4
     d58:	e202200f 	and	r2, r2, #15
     d5c:	0a000018 	beq	dc4 <memset+0x104>
     d60:	e2423004 	sub	r3, r2, #4
     d64:	e3c33003 	bic	r3, r3, #3
     d68:	e2833004 	add	r3, r3, #4
     d6c:	e08c3003 	add	r3, ip, r3
     d70:	e48ce004 	str	lr, [ip], #4
     d74:	e153000c 	cmp	r3, ip
     d78:	1afffffc 	bne	d70 <memset+0xb0>
     d7c:	e2022003 	and	r2, r2, #3
     d80:	e3520000 	cmp	r2, #0
     d84:	0a000004 	beq	d9c <memset+0xdc>
     d88:	e20110ff 	and	r1, r1, #255	; 0xff
     d8c:	e0832002 	add	r2, r3, r2
     d90:	e4c31001 	strb	r1, [r3], #1
     d94:	e1520003 	cmp	r2, r3
     d98:	1afffffc 	bne	d90 <memset+0xd0>
     d9c:	e8bd4030 	pop	{r4, r5, lr}
     da0:	e12fff1e 	bx	lr
     da4:	e3520000 	cmp	r2, #0
     da8:	012fff1e 	bxeq	lr
     dac:	e20110ff 	and	r1, r1, #255	; 0xff
     db0:	e0832002 	add	r2, r3, r2
     db4:	e4c31001 	strb	r1, [r3], #1
     db8:	e1520003 	cmp	r2, r3
     dbc:	1afffffc 	bne	db4 <memset+0xf4>
     dc0:	e12fff1e 	bx	lr
     dc4:	e1a0300c 	mov	r3, ip
     dc8:	eaffffec 	b	d80 <memset+0xc0>
     dcc:	e1a03000 	mov	r3, r0
     dd0:	eaffffc8 	b	cf8 <memset+0x38>
     dd4:	e1a0c003 	mov	ip, r3
     dd8:	eaffffe0 	b	d60 <memset+0xa0>

00000ddc <__malloc_lock>:
     ddc:	e12fff1e 	bx	lr

00000de0 <__malloc_unlock>:
     de0:	e12fff1e 	bx	lr

00000de4 <_sbrk_r>:
     de4:	e3a02000 	mov	r2, #0
     de8:	e92d4070 	push	{r4, r5, r6, lr}
     dec:	e59f5030 	ldr	r5, [pc, #48]	; e24 <_sbrk_r+0x40>
     df0:	e1a04000 	mov	r4, r0
     df4:	e1a00001 	mov	r0, r1
     df8:	e5852000 	str	r2, [r5]
     dfc:	eb0001cb 	bl	1530 <_sbrk>
     e00:	e3700001 	cmn	r0, #1
     e04:	0a000001 	beq	e10 <_sbrk_r+0x2c>
     e08:	e8bd4070 	pop	{r4, r5, r6, lr}
     e0c:	e12fff1e 	bx	lr
     e10:	e5953000 	ldr	r3, [r5]
     e14:	e3530000 	cmp	r3, #0
     e18:	15843000 	strne	r3, [r4]
     e1c:	e8bd4070 	pop	{r4, r5, r6, lr}
     e20:	e12fff1e 	bx	lr
     e24:	200008cc 	andcs	r0, r0, ip, asr #17

00000e28 <__register_exitproc>:
     e28:	e59fc080 	ldr	ip, [pc, #128]	; eb0 <__register_exitproc+0x88>
     e2c:	e92d4010 	push	{r4, lr}
     e30:	e59ce000 	ldr	lr, [ip]
     e34:	e59ec148 	ldr	ip, [lr, #328]	; 0x148
     e38:	e35c0000 	cmp	ip, #0
     e3c:	028ecf53 	addeq	ip, lr, #332	; 0x14c
     e40:	058ec148 	streq	ip, [lr, #328]	; 0x148
     e44:	e59ce004 	ldr	lr, [ip, #4]
     e48:	e35e001f 	cmp	lr, #31
     e4c:	ca000015 	bgt	ea8 <__register_exitproc+0x80>
     e50:	e3500000 	cmp	r0, #0
     e54:	1a000006 	bne	e74 <__register_exitproc+0x4c>
     e58:	e3a00000 	mov	r0, #0
     e5c:	e28e3001 	add	r3, lr, #1
     e60:	e28ee002 	add	lr, lr, #2
     e64:	e58c3004 	str	r3, [ip, #4]
     e68:	e78c110e 	str	r1, [ip, lr, lsl #2]
     e6c:	e8bd4010 	pop	{r4, lr}
     e70:	e12fff1e 	bx	lr
     e74:	e3500002 	cmp	r0, #2
     e78:	e3a00001 	mov	r0, #1
     e7c:	e08c410e 	add	r4, ip, lr, lsl #2
     e80:	e5842088 	str	r2, [r4, #136]	; 0x88
     e84:	e1a02e10 	lsl	r2, r0, lr
     e88:	e59c0188 	ldr	r0, [ip, #392]	; 0x188
     e8c:	e1800002 	orr	r0, r0, r2
     e90:	e58c0188 	str	r0, [ip, #392]	; 0x188
     e94:	e5843108 	str	r3, [r4, #264]	; 0x108
     e98:	059c318c 	ldreq	r3, [ip, #396]	; 0x18c
     e9c:	01832002 	orreq	r2, r3, r2
     ea0:	058c218c 	streq	r2, [ip, #396]	; 0x18c
     ea4:	eaffffeb 	b	e58 <__register_exitproc+0x30>
     ea8:	e3e00000 	mvn	r0, #0
     eac:	eaffffee 	b	e6c <__register_exitproc+0x44>
     eb0:	000015fc 	strdeq	r1, [r0], -ip

00000eb4 <__call_exitprocs>:
     eb4:	e59f310c 	ldr	r3, [pc, #268]	; fc8 <__call_exitprocs+0x114>
     eb8:	e92d4ff0 	push	{r4, r5, r6, r7, r8, r9, sl, fp, lr}
     ebc:	e5937000 	ldr	r7, [r3]
     ec0:	e5976148 	ldr	r6, [r7, #328]	; 0x148
     ec4:	e24dd00c 	sub	sp, sp, #12
     ec8:	e3560000 	cmp	r6, #0
     ecc:	e58d0004 	str	r0, [sp, #4]
     ed0:	0a000029 	beq	f7c <__call_exitprocs+0xc8>
     ed4:	e1a0b001 	mov	fp, r1
     ed8:	e3a08001 	mov	r8, #1
     edc:	e3a09000 	mov	r9, #0
     ee0:	e5964004 	ldr	r4, [r6, #4]
     ee4:	e2545001 	subs	r5, r4, #1
     ee8:	4a000023 	bmi	f7c <__call_exitprocs+0xc8>
     eec:	e2844001 	add	r4, r4, #1
     ef0:	e0864104 	add	r4, r6, r4, lsl #2
     ef4:	ea000003 	b	f08 <__call_exitprocs+0x54>
     ef8:	e2455001 	sub	r5, r5, #1
     efc:	e3750001 	cmn	r5, #1
     f00:	e2444004 	sub	r4, r4, #4
     f04:	0a00001c 	beq	f7c <__call_exitprocs+0xc8>
     f08:	e35b0000 	cmp	fp, #0
     f0c:	0a000002 	beq	f1c <__call_exitprocs+0x68>
     f10:	e5943100 	ldr	r3, [r4, #256]	; 0x100
     f14:	e153000b 	cmp	r3, fp
     f18:	1afffff6 	bne	ef8 <__call_exitprocs+0x44>
     f1c:	e5963004 	ldr	r3, [r6, #4]
     f20:	e5942000 	ldr	r2, [r4]
     f24:	e2433001 	sub	r3, r3, #1
     f28:	e1530005 	cmp	r3, r5
     f2c:	05865004 	streq	r5, [r6, #4]
     f30:	15849000 	strne	r9, [r4]
     f34:	e3520000 	cmp	r2, #0
     f38:	0affffee 	beq	ef8 <__call_exitprocs+0x44>
     f3c:	e5963188 	ldr	r3, [r6, #392]	; 0x188
     f40:	e1a01518 	lsl	r1, r8, r5
     f44:	e1110003 	tst	r1, r3
     f48:	e596a004 	ldr	sl, [r6, #4]
     f4c:	1a00000d 	bne	f88 <__call_exitprocs+0xd4>
     f50:	e1a0e00f 	mov	lr, pc
     f54:	e12fff12 	bx	r2
     f58:	e5962004 	ldr	r2, [r6, #4]
     f5c:	e152000a 	cmp	r2, sl
     f60:	1a000012 	bne	fb0 <__call_exitprocs+0xfc>
     f64:	e5973148 	ldr	r3, [r7, #328]	; 0x148
     f68:	e1530006 	cmp	r3, r6
     f6c:	0affffe1 	beq	ef8 <__call_exitprocs+0x44>
     f70:	e1a06003 	mov	r6, r3
     f74:	e3560000 	cmp	r6, #0
     f78:	1affffd8 	bne	ee0 <__call_exitprocs+0x2c>
     f7c:	e28dd00c 	add	sp, sp, #12
     f80:	e8bd4ff0 	pop	{r4, r5, r6, r7, r8, r9, sl, fp, lr}
     f84:	e12fff1e 	bx	lr
     f88:	e596018c 	ldr	r0, [r6, #396]	; 0x18c
     f8c:	e1110000 	tst	r1, r0
     f90:	1a000008 	bne	fb8 <__call_exitprocs+0x104>
     f94:	e5941080 	ldr	r1, [r4, #128]	; 0x80
     f98:	e59d0004 	ldr	r0, [sp, #4]
     f9c:	e1a0e00f 	mov	lr, pc
     fa0:	e12fff12 	bx	r2
     fa4:	e5962004 	ldr	r2, [r6, #4]
     fa8:	e152000a 	cmp	r2, sl
     fac:	0affffec 	beq	f64 <__call_exitprocs+0xb0>
     fb0:	e5976148 	ldr	r6, [r7, #328]	; 0x148
     fb4:	eaffffee 	b	f74 <__call_exitprocs+0xc0>
     fb8:	e5940080 	ldr	r0, [r4, #128]	; 0x80
     fbc:	e1a0e00f 	mov	lr, pc
     fc0:	e12fff12 	bx	r2
     fc4:	eaffffe3 	b	f58 <__call_exitprocs+0xa4>
     fc8:	000015fc 	strdeq	r1, [r0], -ip

00000fcc <_malloc_trim_r>:
     fcc:	e92d41f0 	push	{r4, r5, r6, r7, r8, lr}
     fd0:	e1a04001 	mov	r4, r1
     fd4:	e59f70e4 	ldr	r7, [pc, #228]	; 10c0 <_malloc_trim_r+0xf4>
     fd8:	e1a06000 	mov	r6, r0
     fdc:	ebffff7e 	bl	ddc <__malloc_lock>
     fe0:	e5973008 	ldr	r3, [r7, #8]
     fe4:	e5935004 	ldr	r5, [r3, #4]
     fe8:	e2643efe 	rsb	r3, r4, #4064	; 0xfe0
     fec:	e3c55003 	bic	r5, r5, #3
     ff0:	e283300f 	add	r3, r3, #15
     ff4:	e0833005 	add	r3, r3, r5
     ff8:	e3c33eff 	bic	r3, r3, #4080	; 0xff0
     ffc:	e3c3300f 	bic	r3, r3, #15
    1000:	e2434a01 	sub	r4, r3, #4096	; 0x1000
    1004:	e3540a01 	cmp	r4, #4096	; 0x1000
    1008:	ba000006 	blt	1028 <_malloc_trim_r+0x5c>
    100c:	e3a01000 	mov	r1, #0
    1010:	e1a00006 	mov	r0, r6
    1014:	ebffff72 	bl	de4 <_sbrk_r>
    1018:	e5973008 	ldr	r3, [r7, #8]
    101c:	e0833005 	add	r3, r3, r5
    1020:	e1500003 	cmp	r0, r3
    1024:	0a000004 	beq	103c <_malloc_trim_r+0x70>
    1028:	e1a00006 	mov	r0, r6
    102c:	ebffff6b 	bl	de0 <__malloc_unlock>
    1030:	e3a00000 	mov	r0, #0
    1034:	e8bd41f0 	pop	{r4, r5, r6, r7, r8, lr}
    1038:	e12fff1e 	bx	lr
    103c:	e1a00006 	mov	r0, r6
    1040:	e2641000 	rsb	r1, r4, #0
    1044:	ebffff66 	bl	de4 <_sbrk_r>
    1048:	e3700001 	cmn	r0, #1
    104c:	0a00000c 	beq	1084 <_malloc_trim_r+0xb8>
    1050:	e5973008 	ldr	r3, [r7, #8]
    1054:	e59f2068 	ldr	r2, [pc, #104]	; 10c4 <_malloc_trim_r+0xf8>
    1058:	e0455004 	sub	r5, r5, r4
    105c:	e3855001 	orr	r5, r5, #1
    1060:	e5835004 	str	r5, [r3, #4]
    1064:	e5923000 	ldr	r3, [r2]
    1068:	e1a00006 	mov	r0, r6
    106c:	e0433004 	sub	r3, r3, r4
    1070:	e5823000 	str	r3, [r2]
    1074:	ebffff59 	bl	de0 <__malloc_unlock>
    1078:	e3a00001 	mov	r0, #1
    107c:	e8bd41f0 	pop	{r4, r5, r6, r7, r8, lr}
    1080:	e12fff1e 	bx	lr
    1084:	e3a01000 	mov	r1, #0
    1088:	e1a00006 	mov	r0, r6
    108c:	ebffff54 	bl	de4 <_sbrk_r>
    1090:	e5972008 	ldr	r2, [r7, #8]
    1094:	e0403002 	sub	r3, r0, r2
    1098:	e353000f 	cmp	r3, #15
    109c:	daffffe1 	ble	1028 <_malloc_trim_r+0x5c>
    10a0:	e3833001 	orr	r3, r3, #1
    10a4:	e5823004 	str	r3, [r2, #4]
    10a8:	e59f3018 	ldr	r3, [pc, #24]	; 10c8 <_malloc_trim_r+0xfc>
    10ac:	e5933000 	ldr	r3, [r3]
    10b0:	e59f100c 	ldr	r1, [pc, #12]	; 10c4 <_malloc_trim_r+0xf8>
    10b4:	e0400003 	sub	r0, r0, r3
    10b8:	e5810000 	str	r0, [r1]
    10bc:	eaffffd9 	b	1028 <_malloc_trim_r+0x5c>
    10c0:	20000460 	andcs	r0, r0, r0, ror #8
    10c4:	2000089c 	mulcs	r0, ip, r8
    10c8:	20000868 	andcs	r0, r0, r8, ror #16

000010cc <_free_r>:
    10cc:	e92d4070 	push	{r4, r5, r6, lr}
    10d0:	e2514000 	subs	r4, r1, #0
    10d4:	0a000031 	beq	11a0 <_free_r+0xd4>
    10d8:	e1a05000 	mov	r5, r0
    10dc:	ebffff3e 	bl	ddc <__malloc_lock>
    10e0:	e5140004 	ldr	r0, [r4, #-4]
    10e4:	e59f22bc 	ldr	r2, [pc, #700]	; 13a8 <_free_r+0x2dc>
    10e8:	e244c008 	sub	ip, r4, #8
    10ec:	e5923008 	ldr	r3, [r2, #8]
    10f0:	e3c01001 	bic	r1, r0, #1
    10f4:	e08ce001 	add	lr, ip, r1
    10f8:	e153000e 	cmp	r3, lr
    10fc:	e59e3004 	ldr	r3, [lr, #4]
    1100:	e3c33003 	bic	r3, r3, #3
    1104:	0a000065 	beq	12a0 <_free_r+0x1d4>
    1108:	e3100001 	tst	r0, #1
    110c:	e58e3004 	str	r3, [lr, #4]
    1110:	1a000024 	bne	11a8 <_free_r+0xdc>
    1114:	e5140008 	ldr	r0, [r4, #-8]
    1118:	e04cc000 	sub	ip, ip, r0
    111c:	e0811000 	add	r1, r1, r0
    1120:	e59c0008 	ldr	r0, [ip, #8]
    1124:	e2824008 	add	r4, r2, #8
    1128:	e1500004 	cmp	r0, r4
    112c:	0a00004b 	beq	1260 <_free_r+0x194>
    1130:	e08e6003 	add	r6, lr, r3
    1134:	e5966004 	ldr	r6, [r6, #4]
    1138:	e3160001 	tst	r6, #1
    113c:	e59c600c 	ldr	r6, [ip, #12]
    1140:	e580600c 	str	r6, [r0, #12]
    1144:	e5860008 	str	r0, [r6, #8]
    1148:	0a000073 	beq	131c <_free_r+0x250>
    114c:	e3813001 	orr	r3, r1, #1
    1150:	e58c3004 	str	r3, [ip, #4]
    1154:	e58e1000 	str	r1, [lr]
    1158:	e3510c02 	cmp	r1, #512	; 0x200
    115c:	2a000026 	bcs	11fc <_free_r+0x130>
    1160:	e3a0e001 	mov	lr, #1
    1164:	e5920004 	ldr	r0, [r2, #4]
    1168:	e1a031a1 	lsr	r3, r1, #3
    116c:	e1a012a1 	lsr	r1, r1, #5
    1170:	e2833001 	add	r3, r3, #1
    1174:	e180111e 	orr	r1, r0, lr, lsl r1
    1178:	e5821004 	str	r1, [r2, #4]
    117c:	e7920183 	ldr	r0, [r2, r3, lsl #3]
    1180:	e0821183 	add	r1, r2, r3, lsl #3
    1184:	e2411008 	sub	r1, r1, #8
    1188:	e58c100c 	str	r1, [ip, #12]
    118c:	e58c0008 	str	r0, [ip, #8]
    1190:	e782c183 	str	ip, [r2, r3, lsl #3]
    1194:	e580c00c 	str	ip, [r0, #12]
    1198:	e1a00005 	mov	r0, r5
    119c:	ebffff0f 	bl	de0 <__malloc_unlock>
    11a0:	e8bd4070 	pop	{r4, r5, r6, lr}
    11a4:	e12fff1e 	bx	lr
    11a8:	e08e0003 	add	r0, lr, r3
    11ac:	e5900004 	ldr	r0, [r0, #4]
    11b0:	e3100001 	tst	r0, #1
    11b4:	1a00000b 	bne	11e8 <_free_r+0x11c>
    11b8:	e0811003 	add	r1, r1, r3
    11bc:	e2824008 	add	r4, r2, #8
    11c0:	e59e3008 	ldr	r3, [lr, #8]
    11c4:	e1530004 	cmp	r3, r4
    11c8:	0a00005f 	beq	134c <_free_r+0x280>
    11cc:	e59e000c 	ldr	r0, [lr, #12]
    11d0:	e583000c 	str	r0, [r3, #12]
    11d4:	e5803008 	str	r3, [r0, #8]
    11d8:	e3813001 	orr	r3, r1, #1
    11dc:	e58c3004 	str	r3, [ip, #4]
    11e0:	e78c1001 	str	r1, [ip, r1]
    11e4:	eaffffdb 	b	1158 <_free_r+0x8c>
    11e8:	e3813001 	orr	r3, r1, #1
    11ec:	e3510c02 	cmp	r1, #512	; 0x200
    11f0:	e5043004 	str	r3, [r4, #-4]
    11f4:	e58e1000 	str	r1, [lr]
    11f8:	3affffd8 	bcc	1160 <_free_r+0x94>
    11fc:	e3510c0a 	cmp	r1, #2560	; 0xa00
    1200:	e1a034a1 	lsr	r3, r1, #9
    1204:	2a00003b 	bcs	12f8 <_free_r+0x22c>
    1208:	e1a03321 	lsr	r3, r1, #6
    120c:	e2830039 	add	r0, r3, #57	; 0x39
    1210:	e283e038 	add	lr, r3, #56	; 0x38
    1214:	e1a00180 	lsl	r0, r0, #3
    1218:	e7923000 	ldr	r3, [r2, r0]
    121c:	e0820000 	add	r0, r2, r0
    1220:	e2400008 	sub	r0, r0, #8
    1224:	e1500003 	cmp	r0, r3
    1228:	0a000041 	beq	1334 <_free_r+0x268>
    122c:	e5932004 	ldr	r2, [r3, #4]
    1230:	e3c22003 	bic	r2, r2, #3
    1234:	e1520001 	cmp	r2, r1
    1238:	9a000002 	bls	1248 <_free_r+0x17c>
    123c:	e5933008 	ldr	r3, [r3, #8]
    1240:	e1500003 	cmp	r0, r3
    1244:	1afffff8 	bne	122c <_free_r+0x160>
    1248:	e593000c 	ldr	r0, [r3, #12]
    124c:	e58c000c 	str	r0, [ip, #12]
    1250:	e58c3008 	str	r3, [ip, #8]
    1254:	e580c008 	str	ip, [r0, #8]
    1258:	e583c00c 	str	ip, [r3, #12]
    125c:	eaffffcd 	b	1198 <_free_r+0xcc>
    1260:	e08e2003 	add	r2, lr, r3
    1264:	e5922004 	ldr	r2, [r2, #4]
    1268:	e3120001 	tst	r2, #1
    126c:	13813001 	orrne	r3, r1, #1
    1270:	158c3004 	strne	r3, [ip, #4]
    1274:	158e1000 	strne	r1, [lr]
    1278:	1affffc6 	bne	1198 <_free_r+0xcc>
    127c:	e0833001 	add	r3, r3, r1
    1280:	e28e1008 	add	r1, lr, #8
    1284:	e8910006 	ldm	r1, {r1, r2}
    1288:	e581200c 	str	r2, [r1, #12]
    128c:	e5821008 	str	r1, [r2, #8]
    1290:	e3832001 	orr	r2, r3, #1
    1294:	e58c2004 	str	r2, [ip, #4]
    1298:	e78c3003 	str	r3, [ip, r3]
    129c:	eaffffbd 	b	1198 <_free_r+0xcc>
    12a0:	e3100001 	tst	r0, #1
    12a4:	e0813003 	add	r3, r1, r3
    12a8:	1a000006 	bne	12c8 <_free_r+0x1fc>
    12ac:	e5141008 	ldr	r1, [r4, #-8]
    12b0:	e04cc001 	sub	ip, ip, r1
    12b4:	e28c0008 	add	r0, ip, #8
    12b8:	e0833001 	add	r3, r3, r1
    12bc:	e8900003 	ldm	r0, {r0, r1}
    12c0:	e580100c 	str	r1, [r0, #12]
    12c4:	e5810008 	str	r0, [r1, #8]
    12c8:	e3831001 	orr	r1, r3, #1
    12cc:	e58c1004 	str	r1, [ip, #4]
    12d0:	e59f10d4 	ldr	r1, [pc, #212]	; 13ac <_free_r+0x2e0>
    12d4:	e582c008 	str	ip, [r2, #8]
    12d8:	e5912000 	ldr	r2, [r1]
    12dc:	e1520003 	cmp	r2, r3
    12e0:	8affffac 	bhi	1198 <_free_r+0xcc>
    12e4:	e59f30c4 	ldr	r3, [pc, #196]	; 13b0 <_free_r+0x2e4>
    12e8:	e1a00005 	mov	r0, r5
    12ec:	e5931000 	ldr	r1, [r3]
    12f0:	ebffff35 	bl	fcc <_malloc_trim_r>
    12f4:	eaffffa7 	b	1198 <_free_r+0xcc>
    12f8:	e3530014 	cmp	r3, #20
    12fc:	9a000008 	bls	1324 <_free_r+0x258>
    1300:	e3530054 	cmp	r3, #84	; 0x54
    1304:	8a000017 	bhi	1368 <_free_r+0x29c>
    1308:	e1a03621 	lsr	r3, r1, #12
    130c:	e283006f 	add	r0, r3, #111	; 0x6f
    1310:	e283e06e 	add	lr, r3, #110	; 0x6e
    1314:	e1a00180 	lsl	r0, r0, #3
    1318:	eaffffbe 	b	1218 <_free_r+0x14c>
    131c:	e0811003 	add	r1, r1, r3
    1320:	eaffffa6 	b	11c0 <_free_r+0xf4>
    1324:	e283005c 	add	r0, r3, #92	; 0x5c
    1328:	e283e05b 	add	lr, r3, #91	; 0x5b
    132c:	e1a00180 	lsl	r0, r0, #3
    1330:	eaffffb8 	b	1218 <_free_r+0x14c>
    1334:	e3a04001 	mov	r4, #1
    1338:	e5921004 	ldr	r1, [r2, #4]
    133c:	e1a0e14e 	asr	lr, lr, #2
    1340:	e181ee14 	orr	lr, r1, r4, lsl lr
    1344:	e582e004 	str	lr, [r2, #4]
    1348:	eaffffbf 	b	124c <_free_r+0x180>
    134c:	e3813001 	orr	r3, r1, #1
    1350:	e582c014 	str	ip, [r2, #20]
    1354:	e582c010 	str	ip, [r2, #16]
    1358:	e98c0018 	stmib	ip, {r3, r4}
    135c:	e58c400c 	str	r4, [ip, #12]
    1360:	e78c1001 	str	r1, [ip, r1]
    1364:	eaffff8b 	b	1198 <_free_r+0xcc>
    1368:	e3530f55 	cmp	r3, #340	; 0x154
    136c:	8a000004 	bhi	1384 <_free_r+0x2b8>
    1370:	e1a037a1 	lsr	r3, r1, #15
    1374:	e2830078 	add	r0, r3, #120	; 0x78
    1378:	e283e077 	add	lr, r3, #119	; 0x77
    137c:	e1a00180 	lsl	r0, r0, #3
    1380:	eaffffa4 	b	1218 <_free_r+0x14c>
    1384:	e59f0028 	ldr	r0, [pc, #40]	; 13b4 <_free_r+0x2e8>
    1388:	e1530000 	cmp	r3, r0
    138c:	91a03921 	lsrls	r3, r1, #18
    1390:	9283007d 	addls	r0, r3, #125	; 0x7d
    1394:	83a00ffe 	movhi	r0, #1016	; 0x3f8
    1398:	83a0e07e 	movhi	lr, #126	; 0x7e
    139c:	9283e07c 	addls	lr, r3, #124	; 0x7c
    13a0:	91a00180 	lslls	r0, r0, #3
    13a4:	eaffff9b 	b	1218 <_free_r+0x14c>
    13a8:	20000460 	andcs	r0, r0, r0, ror #8
    13ac:	2000086c 	andcs	r0, r0, ip, ror #16
    13b0:	20000898 	mulcs	r0, r8, r8
    13b4:	00000554 	andeq	r0, r0, r4, asr r5

000013b8 <cleanup_glue>:
    13b8:	e92d41f0 	push	{r4, r5, r6, r7, r8, lr}
    13bc:	e5916000 	ldr	r6, [r1]
    13c0:	e3560000 	cmp	r6, #0
    13c4:	e1a04001 	mov	r4, r1
    13c8:	e1a05000 	mov	r5, r0
    13cc:	0a000011 	beq	1418 <cleanup_glue+0x60>
    13d0:	e5967000 	ldr	r7, [r6]
    13d4:	e3570000 	cmp	r7, #0
    13d8:	0a00000b 	beq	140c <cleanup_glue+0x54>
    13dc:	e5978000 	ldr	r8, [r7]
    13e0:	e3580000 	cmp	r8, #0
    13e4:	0a000005 	beq	1400 <cleanup_glue+0x48>
    13e8:	e5981000 	ldr	r1, [r8]
    13ec:	e3510000 	cmp	r1, #0
    13f0:	1bfffff0 	blne	13b8 <cleanup_glue>
    13f4:	e1a01008 	mov	r1, r8
    13f8:	e1a00005 	mov	r0, r5
    13fc:	ebffff32 	bl	10cc <_free_r>
    1400:	e1a01007 	mov	r1, r7
    1404:	e1a00005 	mov	r0, r5
    1408:	ebffff2f 	bl	10cc <_free_r>
    140c:	e1a01006 	mov	r1, r6
    1410:	e1a00005 	mov	r0, r5
    1414:	ebffff2c 	bl	10cc <_free_r>
    1418:	e1a01004 	mov	r1, r4
    141c:	e1a00005 	mov	r0, r5
    1420:	ebffff29 	bl	10cc <_free_r>
    1424:	e8bd41f0 	pop	{r4, r5, r6, r7, r8, lr}
    1428:	e12fff1e 	bx	lr

0000142c <_reclaim_reent>:
    142c:	e59f30f8 	ldr	r3, [pc, #248]	; 152c <_reclaim_reent+0x100>
    1430:	e5933000 	ldr	r3, [r3]
    1434:	e1530000 	cmp	r3, r0
    1438:	012fff1e 	bxeq	lr
    143c:	e590104c 	ldr	r1, [r0, #76]	; 0x4c
    1440:	e3510000 	cmp	r1, #0
    1444:	e92d4070 	push	{r4, r5, r6, lr}
    1448:	e1a05000 	mov	r5, r0
    144c:	0a00000f 	beq	1490 <_reclaim_reent+0x64>
    1450:	e3a06000 	mov	r6, #0
    1454:	e7914006 	ldr	r4, [r1, r6]
    1458:	e3540000 	cmp	r4, #0
    145c:	0a000006 	beq	147c <_reclaim_reent+0x50>
    1460:	e1a01004 	mov	r1, r4
    1464:	e5944000 	ldr	r4, [r4]
    1468:	e1a00005 	mov	r0, r5
    146c:	ebffff16 	bl	10cc <_free_r>
    1470:	e3540000 	cmp	r4, #0
    1474:	1afffff9 	bne	1460 <_reclaim_reent+0x34>
    1478:	e595104c 	ldr	r1, [r5, #76]	; 0x4c
    147c:	e2866004 	add	r6, r6, #4
    1480:	e3560080 	cmp	r6, #128	; 0x80
    1484:	1afffff2 	bne	1454 <_reclaim_reent+0x28>
    1488:	e1a00005 	mov	r0, r5
    148c:	ebffff0e 	bl	10cc <_free_r>
    1490:	e5951040 	ldr	r1, [r5, #64]	; 0x40
    1494:	e3510000 	cmp	r1, #0
    1498:	11a00005 	movne	r0, r5
    149c:	1bffff0a 	blne	10cc <_free_r>
    14a0:	e5954148 	ldr	r4, [r5, #328]	; 0x148
    14a4:	e3540000 	cmp	r4, #0
    14a8:	0a000008 	beq	14d0 <_reclaim_reent+0xa4>
    14ac:	e2856f53 	add	r6, r5, #332	; 0x14c
    14b0:	e1540006 	cmp	r4, r6
    14b4:	0a000005 	beq	14d0 <_reclaim_reent+0xa4>
    14b8:	e1a01004 	mov	r1, r4
    14bc:	e5944000 	ldr	r4, [r4]
    14c0:	e1a00005 	mov	r0, r5
    14c4:	ebffff00 	bl	10cc <_free_r>
    14c8:	e1560004 	cmp	r6, r4
    14cc:	1afffff9 	bne	14b8 <_reclaim_reent+0x8c>
    14d0:	e5951054 	ldr	r1, [r5, #84]	; 0x54
    14d4:	e3510000 	cmp	r1, #0
    14d8:	11a00005 	movne	r0, r5
    14dc:	1bfffefa 	blne	10cc <_free_r>
    14e0:	e5953038 	ldr	r3, [r5, #56]	; 0x38
    14e4:	e3530000 	cmp	r3, #0
    14e8:	0a00000d 	beq	1524 <_reclaim_reent+0xf8>
    14ec:	e1a00005 	mov	r0, r5
    14f0:	e595303c 	ldr	r3, [r5, #60]	; 0x3c
    14f4:	e1a0e00f 	mov	lr, pc
    14f8:	e12fff13 	bx	r3
    14fc:	e59542e0 	ldr	r4, [r5, #736]	; 0x2e0
    1500:	e3540000 	cmp	r4, #0
    1504:	0a000006 	beq	1524 <_reclaim_reent+0xf8>
    1508:	e5941000 	ldr	r1, [r4]
    150c:	e3510000 	cmp	r1, #0
    1510:	11a00005 	movne	r0, r5
    1514:	1bffffa7 	blne	13b8 <cleanup_glue>
    1518:	e1a01004 	mov	r1, r4
    151c:	e1a00005 	mov	r0, r5
    1520:	ebfffee9 	bl	10cc <_free_r>
    1524:	e8bd4070 	pop	{r4, r5, r6, lr}
    1528:	e12fff1e 	bx	lr
    152c:	20000030 	andcs	r0, r0, r0, lsr r0

00001530 <_sbrk>:
    1530:	e59f201c 	ldr	r2, [pc, #28]	; 1554 <_sbrk+0x24>
    1534:	e5923000 	ldr	r3, [r2]
    1538:	e59f1018 	ldr	r1, [pc, #24]	; 1558 <_sbrk+0x28>
    153c:	e3530000 	cmp	r3, #0
    1540:	01a03001 	moveq	r3, r1
    1544:	e0830000 	add	r0, r3, r0
    1548:	e5820000 	str	r0, [r2]
    154c:	e1a00003 	mov	r0, r3
    1550:	e12fff1e 	bx	lr
    1554:	200008d0 	ldrdcs	r0, [r0], -r0	; <UNPREDICTABLE>
    1558:	200008d4 	ldrdcs	r0, [r0], -r4

0000155c <_exit>:
    155c:	eafffffe 	b	155c <_exit>

00001560 <register_fini>:
    1560:	e59f3018 	ldr	r3, [pc, #24]	; 1580 <register_fini+0x20>
    1564:	e3530000 	cmp	r3, #0
    1568:	012fff1e 	bxeq	lr
    156c:	e92d4010 	push	{r4, lr}
    1570:	e59f000c 	ldr	r0, [pc, #12]	; 1584 <register_fini+0x24>
    1574:	ebfffb7d 	bl	370 <atexit>
    1578:	e8bd4010 	pop	{r4, lr}
    157c:	e12fff1e 	bx	lr
    1580:	00000000 	andeq	r0, r0, r0
    1584:	000003c4 	andeq	r0, r0, r4, asr #7

00001588 <__frame_dummy_init_array_entry>:
    1588:	000000a8 	andeq	r0, r0, r8, lsr #1
    158c:	00001560 	andeq	r1, r0, r0, ror #10

00001590 <_init>:
    1590:	e1a0c00d 	mov	ip, sp
    1594:	e92ddff8 	push	{r3, r4, r5, r6, r7, r8, r9, sl, fp, ip, lr, pc}
    1598:	e24cb004 	sub	fp, ip, #4
    159c:	e24bd028 	sub	sp, fp, #40	; 0x28
    15a0:	e89d6ff0 	ldm	sp, {r4, r5, r6, r7, r8, r9, sl, fp, sp, lr}
    15a4:	e12fff1e 	bx	lr

000015a8 <_fini>:
    15a8:	e1a0c00d 	mov	ip, sp
    15ac:	e92ddff8 	push	{r3, r4, r5, r6, r7, r8, r9, sl, fp, ip, lr, pc}
    15b0:	e24cb004 	sub	fp, ip, #4

000015b4 <__do_global_dtors_aux_fini_array_entry>:
    15b4:	00000064 	andeq	r0, r0, r4, rrx
    15b8:	e24bd028 	sub	sp, fp, #40	; 0x28
    15bc:	e89d6ff0 	ldm	sp, {r4, r5, r6, r7, r8, r9, sl, fp, sp, lr}
    15c0:	e12fff1e 	bx	lr
